target datalayout = "e-m:e-p270:32:32-p271:32:32-p272:64:64-i64:64-i128:128-f80:128-n8:16:32:64-S128"
target triple = "x86_64-pc-linux-gnu"

%struct.aom_dec_model_info = type { i32, i32, i32, i32 }

; Function Attrs: nounwind uwtable
define hidden void @av1_read_decoder_model_info(ptr noundef %0, ptr noundef %1) #0 {
  %3 = alloca ptr, align 8
  %4 = alloca ptr, align 8
  store ptr %0, ptr %3, align 8
  store ptr %1, ptr %4, align 8
  %5 = load ptr, ptr %4, align 8
  %6 = call i32 @aom_rb_read_literal(ptr noundef %5, i32 noundef 5)
  %7 = add nsw i32 %6, 1
  %8 = load ptr, ptr %3, align 8
  %9 = getelementptr inbounds nuw %struct.aom_dec_model_info, ptr %8, i32 0, i32 1
  store i32 %7, ptr %9, align 4
  %10 = load ptr, ptr %4, align 8
  %11 = call i32 @aom_rb_read_unsigned_literal(ptr noundef %10, i32 noundef 32)
  %12 = load ptr, ptr %3, align 8
  %13 = getelementptr inbounds nuw %struct.aom_dec_model_info, ptr %12, i32 0, i32 0
  store i32 %11, ptr %13, align 4
  %14 = load ptr, ptr %4, align 8
  %15 = call i32 @aom_rb_read_literal(ptr noundef %14, i32 noundef 5)
  %16 = add nsw i32 %15, 1
  %17 = load ptr, ptr %3, align 8
  %18 = getelementptr inbounds nuw %struct.aom_dec_model_info, ptr %17, i32 0, i32 2
  store i32 %16, ptr %18, align 4
  %19 = load ptr, ptr %4, align 8
  %20 = call i32 @aom_rb_read_literal(ptr noundef %19, i32 noundef 5)
  %21 = add nsw i32 %20, 1
  %22 = load ptr, ptr %3, align 8
  %23 = getelementptr inbounds nuw %struct.aom_dec_model_info, ptr %22, i32 0, i32 3
  store i32 %21, ptr %23, align 4
  ret void
}