; Function Attrs: nounwind uwtable
define hidden void @av1_read_decoder_model_info(ptr noundef writeonly captures(none) initializes((0, 16)) %0, ptr noundef %1) local_unnamed_addr #0 {
  %3 = tail call i32 @aom_rb_read_literal(ptr noundef %1, i32 noundef 5) #16
  %4 = add nsw i32 %3, 1
  %5 = getelementptr inbounds nuw i8, ptr %0, i64 4
  store i32 %4, ptr %5, align 4
  %6 = tail call i32 @aom_rb_read_unsigned_literal(ptr noundef %1, i32 noundef 32) #16
  store i32 %6, ptr %0, align 4
  %7 = tail call i32 @aom_rb_read_literal(ptr noundef %1, i32 noundef 5) #16
  %8 = add nsw i32 %7, 1
  %9 = getelementptr inbounds nuw i8, ptr %0, i64 8
  store i32 %8, ptr %9, align 4
  %10 = tail call i32 @aom_rb_read_literal(ptr noundef %1, i32 noundef 5) #16
  %11 = add nsw i32 %10, 1
  %12 = getelementptr inbounds nuw i8, ptr %0, i64 12
  store i32 %11, ptr %12, align 4
  ret void
}